target datalayout = "e-m:e-p270:32:32-p271:32:32-p272:64:64-i64:64-i128:128-f80:128-n8:16:32:64-S128"
target triple = "x86_64-pc-linux-gnu"

%struct.ident_t = type { i32, i32, i32, i32, ptr }
%struct.gmx_cache_protect_t = type { [16 x i32] }
%"class.gmx::Allocator.22" = type { %"class.gmx::HostAllocationPolicy" }
%"class.gmx::HostAllocationPolicy" = type { i32 }
%"class.gmx::Allocator.28" = type { %"class.gmx::HostAllocationPolicy" }
%struct.NbnxnPairlistGpu = type { %struct.gmx_cache_protect_t, i32, i32, i32, float, %"class.std::vector.20", %class.PackedJClusterList, %"class.std::vector.26", i32, %"class.std::unique_ptr.29", %struct.gmx_cache_protect_t }
%"class.std::vector.20" = type { %"struct.std::_Vector_base.21" }
%"struct.std::_Vector_base.21" = type { %"struct.std::_Vector_base<nbnxn_sci, gmx::Allocator<nbnxn_sci, gmx::HostAllocationPolicy>>::_Vector_impl" }
%"struct.std::_Vector_base<nbnxn_sci, gmx::Allocator<nbnxn_sci, gmx::HostAllocationPolicy>>::_Vector_impl" = type { %"class.gmx::Allocator.22", %"struct.std::_Vector_base<nbnxn_sci, gmx::Allocator<nbnxn_sci, gmx::HostAllocationPolicy>>::_Vector_impl_data" }
%"struct.std::_Vector_base<nbnxn_sci, gmx::Allocator<nbnxn_sci, gmx::HostAllocationPolicy>>::_Vector_impl_data" = type { ptr, ptr, ptr }
%class.PackedJClusterList = type { %"class.std::vector.23" }
%"class.std::vector.23" = type { %"struct.std::_Vector_base.24" }
%"struct.std::_Vector_base.24" = type { %"struct.std::_Vector_base<nbnxn_cj_packed_t, gmx::Allocator<nbnxn_cj_packed_t, gmx::HostAllocationPolicy>>::_Vector_impl" }
%"struct.std::_Vector_base<nbnxn_cj_packed_t, gmx::Allocator<nbnxn_cj_packed_t, gmx::HostAllocationPolicy>>::_Vector_impl" = type { %"class.gmx::Allocator.25", %"struct.std::_Vector_base<nbnxn_cj_packed_t, gmx::Allocator<nbnxn_cj_packed_t, gmx::HostAllocationPolicy>>::_Vector_impl_data" }
%"class.gmx::Allocator.25" = type { %"class.gmx::HostAllocationPolicy" }
%"struct.std::_Vector_base<nbnxn_cj_packed_t, gmx::Allocator<nbnxn_cj_packed_t, gmx::HostAllocationPolicy>>::_Vector_impl_data" = type { ptr, ptr, ptr }
%"class.std::vector.26" = type { %"struct.std::_Vector_base.27" }
%"struct.std::_Vector_base.27" = type { %"struct.std::_Vector_base<nbnxn_excl_t, gmx::Allocator<nbnxn_excl_t, gmx::HostAllocationPolicy>>::_Vector_impl" }
%"struct.std::_Vector_base<nbnxn_excl_t, gmx::Allocator<nbnxn_excl_t, gmx::HostAllocationPolicy>>::_Vector_impl" = type { %"class.gmx::Allocator.28", %"struct.std::_Vector_base<nbnxn_excl_t, gmx::Allocator<nbnxn_excl_t, gmx::HostAllocationPolicy>>::_Vector_impl_data" }
%"struct.std::_Vector_base<nbnxn_excl_t, gmx::Allocator<nbnxn_excl_t, gmx::HostAllocationPolicy>>::_Vector_impl_data" = type { ptr, ptr, ptr }
%"class.std::unique_ptr.29" = type { %"struct.std::__uniq_ptr_data.30" }
%"struct.std::__uniq_ptr_data.30" = type { %"class.std::__uniq_ptr_impl.31" }
%"class.std::__uniq_ptr_impl.31" = type { %"class.std::tuple.32" }
%"class.std::tuple.32" = type { %"struct.std::_Tuple_impl.33" }
%"struct.std::_Tuple_impl.33" = type { %"struct.std::_Head_base.36" }
%"struct.std::_Head_base.36" = type { ptr }
%class.PairlistSet = type { %"class.std::vector.46", %"class.std::vector.46", %"class.std::vector.51", ptr, i8, i8, %"class.std::vector.56", i32, i32, i32, i32 }
%"class.std::vector.46" = type { %"struct.std::_Vector_base.47" }
%"struct.std::_Vector_base.47" = type { %"struct.std::_Vector_base<NbnxnPairlistCpu, std::allocator<NbnxnPairlistCpu>>::_Vector_impl" }
%"struct.std::_Vector_base<NbnxnPairlistCpu, std::allocator<NbnxnPairlistCpu>>::_Vector_impl" = type { %"struct.std::_Vector_base<NbnxnPairlistCpu, std::allocator<NbnxnPairlistCpu>>::_Vector_impl_data" }
%"struct.std::_Vector_base<NbnxnPairlistCpu, std::allocator<NbnxnPairlistCpu>>::_Vector_impl_data" = type { ptr, ptr, ptr }
%"class.std::vector.51" = type { %"struct.std::_Vector_base.52" }
%"struct.std::_Vector_base.52" = type { %"struct.std::_Vector_base<NbnxnPairlistGpu, std::allocator<NbnxnPairlistGpu>>::_Vector_impl" }
%"struct.std::_Vector_base<NbnxnPairlistGpu, std::allocator<NbnxnPairlistGpu>>::_Vector_impl" = type { %"struct.std::_Vector_base<NbnxnPairlistGpu, std::allocator<NbnxnPairlistGpu>>::_Vector_impl_data" }
%"struct.std::_Vector_base<NbnxnPairlistGpu, std::allocator<NbnxnPairlistGpu>>::_Vector_impl_data" = type { ptr, ptr, ptr }
%"class.std::vector.56" = type { %"struct.std::_Vector_base.57" }
%"struct.std::_Vector_base.57" = type { %"struct.std::_Vector_base<std::unique_ptr<t_nblist>, std::allocator<std::unique_ptr<t_nblist>>>::_Vector_impl" }
%"struct.std::_Vector_base<std::unique_ptr<t_nblist>, std::allocator<std::unique_ptr<t_nblist>>>::_Vector_impl" = type { %"struct.std::_Vector_base<std::unique_ptr<t_nblist>, std::allocator<std::unique_ptr<t_nblist>>>::_Vector_impl_data" }
%"struct.std::_Vector_base<std::unique_ptr<t_nblist>, std::allocator<std::unique_ptr<t_nblist>>>::_Vector_impl_data" = type { ptr, ptr, ptr }

@1 = private unnamed_addr constant %struct.ident_t { i32 0, i32 514, i32 0, i32 22, ptr @0 }, align 8
@_ZTISt9exception = external constant ptr

; Function Attrs: mustprogress nounwind uwtable
define linkonce_odr noundef nonnull align 8 dereferenceable(256) ptr @_ZNSt6vectorI16NbnxnPairlistGpuSaIS0_EEixEm(ptr noundef nonnull align 8 dereferenceable(24) %0, i64 noundef %1) #1 comdat align 2 {
  %3 = alloca ptr, align 8
  %4 = alloca i64, align 8
  store ptr %0, ptr %3, align 8
  store i64 %1, ptr %4, align 8
  %5 = load ptr, ptr %3, align 8
  %6 = getelementptr inbounds %"struct.std::_Vector_base.52", ptr %5, i32 0, i32 0
  %7 = getelementptr inbounds %"struct.std::_Vector_base<NbnxnPairlistGpu, std::allocator<NbnxnPairlistGpu>>::_Vector_impl_data", ptr %6, i32 0, i32 0
  %8 = load ptr, ptr %7, align 8
  %9 = load i64, ptr %4, align 8
  %10 = getelementptr inbounds %struct.NbnxnPairlistGpu, ptr %8, i64 %9
  ret ptr %10
}

; Function Attrs: norecurse nounwind uwtable
define internal void @_ZN11PairlistSet18constructPairlistsEN3gmx19InteractionLocalityERKN5Nbnxm7GridSetENS0_8ArrayRefI14PairsearchWorkEEP16nbnxn_atomdata_tRKNS0_11ListOfListsIiEEiP6t_nrnbP19SearchCycleCounting.omp_outlined.8(ptr noalias noundef %0, ptr noalias noundef %1, ptr noundef nonnull align 4 dereferenceable(4) %2, ptr noundef %3) #11 personality ptr @__gxx_personality_v0 {
  %5 = alloca ptr, align 8
  %6 = alloca ptr, align 8
  %7 = alloca ptr, align 8
  %8 = alloca ptr, align 8
  %9 = alloca i32, align 4
  %10 = alloca i32, align 4
  %11 = alloca i32, align 4
  %12 = alloca i32, align 4
  %13 = alloca i32, align 4
  %14 = alloca i32, align 4
  %15 = alloca i32, align 4
  %16 = alloca i32, align 4
  %17 = alloca i32, align 4
  %18 = alloca ptr, align 8
  %19 = alloca i32, align 4
  %20 = alloca ptr, align 8
  store ptr %0, ptr %5, align 8
  store ptr %1, ptr %6, align 8
  store ptr %2, ptr %7, align 8
  store ptr %3, ptr %8, align 8
  %21 = load ptr, ptr %7, align 8
  %22 = load ptr, ptr %8, align 8
  %23 = load i32, ptr %21, align 4
  store i32 %23, ptr %10, align 4
  %24 = load i32, ptr %10, align 4
  %25 = sub nsw i32 %24, 0
  %26 = sdiv i32 %25, 1
  %27 = sub nsw i32 %26, 1
  store i32 %27, ptr %11, align 4
  store i32 0, ptr %12, align 4
  %28 = load i32, ptr %10, align 4
  %29 = icmp slt i32 0, %28
  br i1 %29, label %30, label %79

30:                                               ; preds = %4
  store i32 0, ptr %13, align 4
  %31 = load i32, ptr %11, align 4
  store i32 %31, ptr %14, align 4
  store i32 1, ptr %15, align 4
  store i32 0, ptr %16, align 4
  %32 = load ptr, ptr %5, align 8
  %33 = load i32, ptr %32, align 4
  call void @__kmpc_for_static_init_4(ptr @1, i32 %33, i32 34, ptr %16, ptr %13, ptr %14, ptr %15, i32 1, i32 1)
  %34 = load i32, ptr %14, align 4
  %35 = load i32, ptr %11, align 4
  %36 = icmp sgt i32 %34, %35
  br i1 %36, label %37, label %39

37:                                               ; preds = %30
  %38 = load i32, ptr %11, align 4
  br label %41

39:                                               ; preds = %30
  %40 = load i32, ptr %14, align 4
  br label %41

41:                                               ; preds = %39, %37
  %42 = phi i32 [ %38, %37 ], [ %40, %39 ]
  store i32 %42, ptr %14, align 4
  %43 = load i32, ptr %13, align 4
  store i32 %43, ptr %9, align 4
  br label %44

44:                                               ; preds = %72, %41
  %45 = load i32, ptr %9, align 4
  %46 = load i32, ptr %14, align 4
  %47 = icmp sle i32 %45, %46
  br i1 %47, label %48, label %75

48:                                               ; preds = %44
  %49 = load i32, ptr %9, align 4
  %50 = mul nsw i32 %49, 1
  %51 = add nsw i32 0, %50
  store i32 %51, ptr %17, align 4
  %52 = getelementptr inbounds %class.PairlistSet, ptr %22, i32 0, i32 2
  %53 = load i32, ptr %17, align 4
  %54 = sext i32 %53 to i64
  %55 = call noundef nonnull align 8 dereferenceable(256) ptr @_ZNSt6vectorI16NbnxnPairlistGpuSaIS0_EEixEm(ptr noundef nonnull align 8 dereferenceable(24) %52, i64 noundef %54) #12
  invoke void @_ZL8sort_sciP16NbnxnPairlistGpu(ptr noundef %55)
          to label %56 unwind label %57

56:                                               ; preds = %48
  br label %70

57:                                               ; preds = %48
  %58 = landingpad { ptr, i32 }
          catch ptr @_ZTISt9exception
          catch ptr null
  %59 = extractvalue { ptr, i32 } %58, 0
  store ptr %59, ptr %18, align 8
  %60 = extractvalue { ptr, i32 } %58, 1
  store i32 %60, ptr %19, align 4
  br label %61

61:                                               ; preds = %57
  %62 = load i32, ptr %19, align 4
  %63 = call i32 @llvm.eh.typeid.for(ptr @_ZTISt9exception) #12
  %64 = icmp eq i32 %62, %63
  br i1 %64, label %65, label %83

65:                                               ; preds = %61
  %66 = load ptr, ptr %18, align 8
  %67 = call ptr @__cxa_begin_catch(ptr %66) #12
  store ptr %67, ptr %20, align 8
  %68 = load ptr, ptr %20, align 8
  invoke void @_ZN3gmx28processExceptionAsFatalErrorERKSt9exception(ptr noundef nonnull align 8 dereferenceable(8) %68) #25
          to label %69 unwind label %80

69:                                               ; preds = %65
  unreachable

70:                                               ; preds = %56
  br label %71

71:                                               ; preds = %70
  br label %72

72:                                               ; preds = %71
  %73 = load i32, ptr %9, align 4
  %74 = add nsw i32 %73, 1
  store i32 %74, ptr %9, align 4
  br label %44

75:                                               ; preds = %44
  br label %76

76:                                               ; preds = %75
  %77 = load ptr, ptr %5, align 8
  %78 = load i32, ptr %77, align 4
  call void @__kmpc_for_static_fini(ptr @1, i32 %78)
  br label %79

79:                                               ; preds = %76, %4
  ret void

80:                                               ; preds = %65
  %81 = landingpad { ptr, i32 }
          catch ptr null
  %82 = extractvalue { ptr, i32 } %81, 0
  call void @__clang_call_terminate(ptr %82) #24
  unreachable

83:                                               ; preds = %61
  %84 = load ptr, ptr %18, align 8
  call void @__clang_call_terminate(ptr %84) #24
  unreachable
}