; Function Attrs: norecurse nounwind uwtable
define internal void @_ZN11PairlistSet18constructPairlistsEN3gmx19InteractionLocalityERKN5Nbnxm7GridSetENS0_8ArrayRefI14PairsearchWorkEEP16nbnxn_atomdata_tRKNS0_11ListOfListsIiEEiP6t_nrnbP19SearchCycleCounting.omp_outlined.8(ptr noalias nocapture noundef readonly %0, ptr noalias nocapture readnone %1, ptr nocapture noundef nonnull readonly align 4 dereferenceable(4) %2, ptr nocapture noundef readonly %3) #10 personality ptr @__gxx_personality_v0 {
  %5 = alloca i32, align 4
  %6 = alloca i32, align 4
  %7 = alloca i32, align 4
  %8 = alloca i32, align 4
  %9 = load i32, ptr %2, align 4
  %10 = icmp sgt i32 %9, 0
  br i1 %10, label %11, label %34

11:                                               ; preds = %4
  %12 = add nsw i32 %9, -1
  store i32 0, ptr %5, align 4
  store i32 %12, ptr %6, align 4
  store i32 1, ptr %7, align 4
  store i32 0, ptr %8, align 4
  %13 = load i32, ptr %0, align 4
  call void @__kmpc_for_static_init_4(ptr nonnull @1, i32 %13, i32 34, ptr nonnull %8, ptr nonnull %5, ptr nonnull %6, ptr nonnull %7, i32 1, i32 1)
  %14 = load i32, ptr %6, align 4
  %15 = call i32 @llvm.smin.i32(i32 %14, i32 %12)
  store i32 %15, ptr %6, align 4
  %16 = load i32, ptr %5, align 4
  %.not16 = icmp sgt i32 %16, %15
  br i1 %.not16, label %._crit_edge, label %.lr.ph

.lr.ph:                                           ; preds = %11
  %17 = getelementptr inbounds i8, ptr %3, i64 48
  %18 = sext i32 %16 to i64
  br label %19

19:                                               ; preds = %.lr.ph, %31
  %indvars.iv = phi i64 [ %18, %.lr.ph ], [ %indvars.iv.next, %31 ]
  %20 = load ptr, ptr %17, align 8
  %21 = getelementptr inbounds %struct.NbnxnPairlistGpu, ptr %20, i64 %indvars.iv
  invoke fastcc void @_ZL8sort_sciP16NbnxnPairlistGpu(ptr noundef nonnull %21)
          to label %31 unwind label %22

22:                                               ; preds = %19
  %23 = landingpad { ptr, i32 }
          catch ptr @_ZTISt9exception
          catch ptr null
  %24 = extractvalue { ptr, i32 } %23, 0
  %25 = extractvalue { ptr, i32 } %23, 1
  %26 = call i32 @llvm.eh.typeid.for(ptr nonnull @_ZTISt9exception) #11
  %27 = icmp eq i32 %25, %26
  br i1 %27, label %28, label %38

28:                                               ; preds = %22
  %29 = call ptr @__cxa_begin_catch(ptr %24) #11
  invoke void @_ZN3gmx28processExceptionAsFatalErrorERKSt9exception(ptr noundef nonnull align 8 dereferenceable(8) %29) #27
          to label %30 unwind label %35

30:                                               ; preds = %28
  unreachable

31:                                               ; preds = %19
  %indvars.iv.next = add nsw i64 %indvars.iv, 1
  %32 = load i32, ptr %6, align 4
  %33 = sext i32 %32 to i64
  %.not.not = icmp slt i64 %indvars.iv, %33
  br i1 %.not.not, label %19, label %._crit_edge

._crit_edge:                                      ; preds = %31, %11
  call void @__kmpc_for_static_fini(ptr nonnull @1, i32 %13)
  br label %34

34:                                               ; preds = %._crit_edge, %4
  ret void

35:                                               ; preds = %28
  %36 = landingpad { ptr, i32 }
          catch ptr null
  %37 = extractvalue { ptr, i32 } %36, 0
  call void @__clang_call_terminate(ptr %37) #28
  unreachable

38:                                               ; preds = %22
  call void @__clang_call_terminate(ptr %24) #28
  unreachable
}